; Function Attrs: mustprogress nounwind uwtable
define dso_local noundef zeroext i1 @_ZNK5clang6driver11Compilation15CleanupFileListERKN4llvm11SmallVectorIPKcLj16EEEb(ptr nocapture noundef nonnull readonly align 8 dereferenceable(523) %0, ptr noundef nonnull align 8 dereferenceable(144) %1, i1 noundef zeroext %2) local_unnamed_addr #0 align 2 {
  %4 = load ptr, ptr %1, align 8
  %5 = tail call noundef i64 @_ZNK4llvm15SmallVectorBaseIjE4sizeEv(ptr noundef nonnull align 8 dereferenceable(16) %1) #17
  %6 = getelementptr inbounds ptr, ptr %4, i64 %5
  %.not12 = icmp eq i64 %5, 0
  br i1 %.not12, label %._crit_edge, label %.lr.ph

.lr.ph:                                           ; preds = %3, %.lr.ph
  %.014 = phi i1 [ %9, %.lr.ph ], [ true, %3 ]
  %.01113 = phi ptr [ %10, %.lr.ph ], [ %4, %3 ]
  %7 = load ptr, ptr %.01113, align 8
  %8 = tail call noundef zeroext i1 @_ZNK5clang6driver11Compilation11CleanupFileEPKcb(ptr noundef nonnull align 8 dereferenceable(523) %0, ptr noundef %7, i1 noundef zeroext %2)
  %9 = and i1 %.014, %8
  %10 = getelementptr inbounds i8, ptr %.01113, i64 8
  %.not = icmp eq ptr %10, %6
  br i1 %.not, label %._crit_edge, label %.lr.ph

._crit_edge:                                      ; preds = %.lr.ph, %3
  %.0.lcssa = phi i1 [ true, %3 ], [ %9, %.lr.ph ]
  ret i1 %.0.lcssa
}